; Function Attrs: mustprogress uwtable
define dso_local void @_ZN10cmFindBaseC2ENSt7__cxx1112basic_stringIcSt11char_traitsIcESaIcEEER17cmExecutionStatus(ptr noundef nonnull align 8 dereferenceable(600) %0, ptr noundef %1, ptr noundef nonnull align 8 dereferenceable(80) %2) unnamed_addr #3 align 2 {
  %4 = getelementptr inbounds i8, ptr %0, i64 8
  tail call void @_ZN12cmFindCommonC2ER17cmExecutionStatus(ptr noundef nonnull align 8 dereferenceable(384) %4, ptr noundef nonnull align 8 dereferenceable(80) %2)
  store ptr getelementptr inbounds ({ [5 x ptr] }, ptr @_ZTV10cmFindBase, i64 0, i32 0, i64 2), ptr %0, align 8
  %5 = getelementptr inbounds i8, ptr %0, i64 392
  tail call void @_ZNSt7__cxx1112basic_stringIcSt11char_traitsIcESaIcEEC1EOS4_(ptr noundef nonnull align 8 dereferenceable(32) %5, ptr noundef nonnull align 8 dereferenceable(32) %1) #18
  %6 = getelementptr inbounds i8, ptr %0, i64 424
  tail call void @_ZNSt7__cxx1112basic_stringIcSt11char_traitsIcESaIcEEC1Ev(ptr noundef nonnull align 8 dereferenceable(32) %6) #18
  %7 = getelementptr inbounds i8, ptr %0, i64 456
  store i32 6, ptr %7, align 8
  %8 = getelementptr inbounds i8, ptr %0, i64 464
  tail call void @_ZNSt7__cxx1112basic_stringIcSt11char_traitsIcESaIcEEC1Ev(ptr noundef nonnull align 8 dereferenceable(32) %8) #18
  %9 = getelementptr inbounds i8, ptr %0, i64 496
  %10 = getelementptr inbounds i8, ptr %0, i64 528
  tail call void @llvm.memset.p0.i64(ptr noundef nonnull align 8 dereferenceable(26) %9, i8 0, i64 26, i1 false)
  tail call void @_ZNSt7__cxx1112basic_stringIcSt11char_traitsIcESaIcEEC1Ev(ptr noundef nonnull align 8 dereferenceable(32) %10) #18
  %11 = getelementptr inbounds i8, ptr %0, i64 560
  store <4 x i8> <i8 0, i8 0, i8 1, i8 0>, ptr %11, align 8
  %12 = getelementptr inbounds i8, ptr %0, i64 568
  tail call void @_ZNSt7__cxx1112basic_stringIcSt11char_traitsIcESaIcEEC1Ev(ptr noundef nonnull align 8 dereferenceable(32) %12) #18
  ret void
}